opt subtitle "HI-TECH Software Omniscient Code Generator (Lite mode) build 10920"

opt pagewidth 120

	opt lm

	processor	16F877A
clrc	macro
	bcf	3,0
	endm
clrz	macro
	bcf	3,2
	endm
setc	macro
	bsf	3,0
	endm
setz	macro
	bsf	3,2
	endm
skipc	macro
	btfss	3,0
	endm
skipz	macro
	btfss	3,2
	endm
skipnc	macro
	btfsc	3,0
	endm
skipnz	macro
	btfsc	3,2
	endm
indf	equ	0
indf0	equ	0
pc	equ	2
pcl	equ	2
status	equ	3
fsr	equ	4
fsr0	equ	4
c	equ	1
z	equ	0
pclath	equ	10
# 4 "E:\02-CODING\05-LYCASOFT CODING\02-CODING\19-TIMER 2\CODE\TIMER 2.c"
	psect config,class=CONFIG,delta=2 ;#
# 4 "E:\02-CODING\05-LYCASOFT CODING\02-CODING\19-TIMER 2\CODE\TIMER 2.c"
	dw 0X3F3A ;#
	FNROOT	_main
	global	_count
	global	_PORTB
psect	maintext,global,class=CODE,delta=2
global __pmaintext
__pmaintext:
_PORTB	set	6
	global	_T2CON
_T2CON	set	18
	global	_TMR2
_TMR2	set	17
	global	_CARRY
_CARRY	set	24
	global	_GIE
_GIE	set	95
	global	_RB0
_RB0	set	48
	global	_TMR2IF
_TMR2IF	set	97
	global	_PR2
_PR2	set	146
	global	_TRISB
_TRISB	set	134
	global	_EEADR
_EEADR	set	269
	global	_EEDATA
_EEDATA	set	268
	global	_EECON1
_EECON1	set	396
	global	_EECON2
_EECON2	set	397
	global	_RD
_RD	set	3168
	global	_WR
_WR	set	3169
	global	_WREN
_WREN	set	3170
	file	"TIMER 2.as"
	line	#
psect cinit,class=CODE,delta=2
global start_initialization
start_initialization:

psect	bssCOMMON,class=COMMON,space=1
global __pbssCOMMON
__pbssCOMMON:
_count:
       ds      2

; Clear objects allocated to COMMON
psect cinit,class=CODE,delta=2
	clrf	((__pbssCOMMON)+0)&07Fh
	clrf	((__pbssCOMMON)+1)&07Fh
psect cinit,class=CODE,delta=2
global end_of_initialization

;End of C runtime variable initialization code

end_of_initialization:
clrf status
ljmp _main	;jump to C main() function
psect	cstackCOMMON,class=COMMON,space=1
global __pcstackCOMMON
__pcstackCOMMON:
	global	?_main
?_main:	; 0 bytes @ 0x0
	global	??_main
??_main:	; 0 bytes @ 0x0
;;Data sizes: Strings 0, constant 0, data 0, bss 2, persistent 0 stack 0
;;Auto spaces:   Size  Autos    Used
;; COMMON          14      0       2
;; BANK0           80      0       0
;; BANK1           80      0       0
;; BANK3           96      0       0
;; BANK2           96      0       0

;;
;; Pointer list with targets:



;;
;; Critical Paths under _main in COMMON
;;
;;   None.
;;
;; Critical Paths under _main in BANK0
;;
;;   None.
;;
;; Critical Paths under _main in BANK1
;;
;;   None.
;;
;; Critical Paths under _main in BANK3
;;
;;   None.
;;
;; Critical Paths under _main in BANK2
;;
;;   None.

;;
;;Main: autosize = 0, tempsize = 0, incstack = 0, save=0
;;

;;
;;Call Graph Tables:
;;
;; ---------------------------------------------------------------------------------
;; (Depth) Function   	        Calls       Base Space   Used Autos Params    Refs
;; ---------------------------------------------------------------------------------
;; (0) _main                                                 0     0      0       0
;; ---------------------------------------------------------------------------------
;; Estimated maximum stack depth 0
;; ---------------------------------------------------------------------------------

;; Call Graph Graphs:

;; _main (ROOT)
;;

;; Address spaces:

;;Name               Size   Autos  Total    Cost      Usage
;;BITCOMMON            E      0       0       0        0.0%
;;EEDATA             100      0       0       0        0.0%
;;NULL                 0      0       0       0        0.0%
;;CODE                 0      0       0       0        0.0%
;;COMMON               E      0       2       1       14.3%
;;BITSFR0              0      0       0       1        0.0%
;;SFR0                 0      0       0       1        0.0%
;;BITSFR1              0      0       0       2        0.0%
;;SFR1                 0      0       0       2        0.0%
;;STACK                0      0       0       2        0.0%
;;ABS                  0      0       2       3        0.0%
;;BITBANK0            50      0       0       4        0.0%
;;BITSFR3              0      0       0       4        0.0%
;;SFR3                 0      0       0       4        0.0%
;;BANK0               50      0       0       5        0.0%
;;BITSFR2              0      0       0       5        0.0%
;;SFR2                 0      0       0       5        0.0%
;;BITBANK1            50      0       0       6        0.0%
;;BANK1               50      0       0       7        0.0%
;;BITBANK3            60      0       0       8        0.0%
;;BANK3               60      0       0       9        0.0%
;;BITBANK2            60      0       0      10        0.0%
;;BANK2               60      0       0      11        0.0%
;;DATA                 0      0       2      12        0.0%

	global	_main
psect	maintext

;; *************** function _main *****************
;; Defined at:
;;		line 9 in file "E:\02-CODING\05-LYCASOFT CODING\02-CODING\19-TIMER 2\CODE\TIMER 2.c"
;; Parameters:    Size  Location     Type
;;		None
;; Auto vars:     Size  Location     Type
;;		None
;; Return value:  Size  Location     Type
;;		None               void
;; Registers used:
;;		wreg, status,2
;; Tracked objects:
;;		On entry : 17F/0
;;		On exit  : 0/0
;;		Unchanged: 0/0
;; Data sizes:     COMMON   BANK0   BANK1   BANK3   BANK2
;;      Params:         0       0       0       0       0
;;      Locals:         0       0       0       0       0
;;      Temps:          0       0       0       0       0
;;      Totals:         0       0       0       0       0
;;Total ram usage:        0 bytes
;; This function calls:
;;		Nothing
;; This function is called by:
;;		Startup code after reset
;; This function uses a non-reentrant model
;;
psect	maintext
	file	"E:\02-CODING\05-LYCASOFT CODING\02-CODING\19-TIMER 2\CODE\TIMER 2.c"
	line	9
	global	__size_of_main
	__size_of_main	equ	__end_of_main-_main
	
_main:	
	opt	stack 8
; Regs used in _main: [wreg+status,2]
	line	10
	
l1741:	
;TIMER 2.c: 10: TRISB=0X00;
	bsf	status, 5	;RP0=1, select bank1
	bcf	status, 6	;RP1=0, select bank1
	clrf	(134)^080h	;volatile
	line	11
;TIMER 2.c: 11: PORTB=0X00;
	bcf	status, 5	;RP0=0, select bank0
	bcf	status, 6	;RP1=0, select bank0
	clrf	(6)	;volatile
	line	12
;TIMER 2.c: 12: TMR2=0X00;
	clrf	(17)	;volatile
	line	13
	
l1743:	
;TIMER 2.c: 13: PR2=255;
	movlw	(0FFh)
	bsf	status, 5	;RP0=1, select bank1
	bcf	status, 6	;RP1=0, select bank1
	movwf	(146)^080h	;volatile
	line	14
	
l1745:	
;TIMER 2.c: 14: T2CON=0X07;
	movlw	(07h)
	bcf	status, 5	;RP0=0, select bank0
	bcf	status, 6	;RP1=0, select bank0
	movwf	(18)	;volatile
	line	15
	
l1747:	
;TIMER 2.c: 15: TMR2IF=0;
	bcf	(97/8),(97)&7
	goto	l688
	line	17
;TIMER 2.c: 17: while(1)
	
l687:	
	line	19
;TIMER 2.c: 18: {
;TIMER 2.c: 19: while(TMR2IF==0);
	goto	l688
	
l689:	
	
l688:	
	btfss	(97/8),(97)&7
	goto	u11
	goto	u10
u11:
	goto	l688
u10:
	
l690:	
	line	20
;TIMER 2.c: 20: TMR2IF=0;
	bcf	(97/8),(97)&7
	line	21
	
l1749:	
;TIMER 2.c: 21: count++;
	movlw	low(01h)
	addwf	(_count),f
	skipnc
	incf	(_count+1),f
	movlw	high(01h)
	addwf	(_count+1),f
	line	22
;TIMER 2.c: 22: if(count==612)
	movlw	high(0264h)
	xorwf	(_count+1),w
	skipz
	goto	u25
	movlw	low(0264h)
	xorwf	(_count),w
u25:

	skipz
	goto	u21
	goto	u20
u21:
	goto	l688
u20:
	line	24
	
l1751:	
;TIMER 2.c: 23: {
;TIMER 2.c: 24: RB0=~RB0;
	movlw	1<<((48)&7)
	xorwf	((48)/8),f
	line	25
	
l1753:	
;TIMER 2.c: 25: count=0;
	clrf	(_count)
	clrf	(_count+1)
	goto	l688
	line	26
	
l691:	
	goto	l688
	line	27
	
l692:	
	line	17
	goto	l688
	
l693:	
	line	28
	
l694:	
	global	start
	ljmp	start
	opt stack 0
GLOBAL	__end_of_main
	__end_of_main:
;; =============== function _main ends ============

	signat	_main,88
psect	maintext
	global	btemp
	btemp set 07Eh

	DABS	1,126,2	;btemp
	global	wtemp0
	wtemp0 set btemp
	end
